target datalayout = "e-m:e-p270:32:32-p271:32:32-p272:64:64-i64:64-i128:128-f80:128-n8:16:32:64-S128"
target triple = "x86_64-pc-linux-gnu"

%"struct.dpx::Block" = type { i32, i32, i32, i32 }
%"struct.dpx::GenericHeader" = type { i32, i32, [8 x i8], i32, i32, i32, i32, i32, [100 x i8], [24 x i8], [100 x i8], [200 x i8], [200 x i8], i32, [104 x i8], i16, i16, i32, i32, [8 x %"struct.dpx::ImageElement"], [52 x i8], i32, i32, float, float, i32, i32, [100 x i8], [24 x i8], [32 x i8], [32 x i8], [4 x i16], [2 x i32], float, float, [20 x i8] }
%"struct.dpx::ImageElement" = type { i32, i32, float, i32, float, i8, i8, i8, i8, i16, i16, i32, i32, i32, [32 x i8] }

; Function Attrs: inlinehint mustprogress nounwind uwtable
define internal noundef i32 @_ZN3dpxL26QueryRGBBufferSizeInternalENS_10DescriptorEii(i32 noundef %0, i32 noundef %1, i32 noundef %2) #5 {
  %4 = alloca i32, align 4
  %5 = alloca i32, align 4
  %6 = alloca i32, align 4
  %7 = alloca i32, align 4
  store i32 %0, ptr %5, align 4, !tbaa !17
  store i32 %1, ptr %6, align 4, !tbaa !8
  store i32 %2, ptr %7, align 4, !tbaa !8
  %8 = load i32, ptr %5, align 4, !tbaa !17
  switch i32 %8, label %34 [
    i32 100, label %9
    i32 102, label %14
    i32 50, label %14
    i32 101, label %19
    i32 103, label %24
    i32 51, label %24
    i32 52, label %24
    i32 1, label %29
    i32 2, label %29
    i32 3, label %29
    i32 4, label %29
    i32 6, label %29
    i32 8, label %29
  ]

9:                                                ; preds = %3
  %10 = load i32, ptr %6, align 4, !tbaa !8
  %11 = mul nsw i32 %10, 3
  %12 = load i32, ptr %7, align 4, !tbaa !8
  %13 = mul nsw i32 %11, %12
  store i32 %13, ptr %4, align 4
  br label %35

14:                                               ; preds = %3, %3
  %15 = load i32, ptr %6, align 4, !tbaa !8
  %16 = mul nsw i32 %15, -3
  %17 = load i32, ptr %7, align 4, !tbaa !8
  %18 = mul nsw i32 %16, %17
  store i32 %18, ptr %4, align 4
  br label %35

19:                                               ; preds = %3
  %20 = load i32, ptr %6, align 4, !tbaa !8
  %21 = mul nsw i32 %20, 4
  %22 = load i32, ptr %7, align 4, !tbaa !8
  %23 = mul nsw i32 %21, %22
  store i32 %23, ptr %4, align 4
  br label %35

24:                                               ; preds = %3, %3, %3
  %25 = load i32, ptr %6, align 4, !tbaa !8
  %26 = mul nsw i32 %25, -4
  %27 = load i32, ptr %7, align 4, !tbaa !8
  %28 = mul nsw i32 %26, %27
  store i32 %28, ptr %4, align 4
  br label %35

29:                                               ; preds = %3, %3, %3, %3, %3, %3
  %30 = load i32, ptr %6, align 4, !tbaa !8
  %31 = mul nsw i32 %30, 1
  %32 = load i32, ptr %7, align 4, !tbaa !8
  %33 = mul nsw i32 %31, %32
  store i32 %33, ptr %4, align 4
  br label %35

34:                                               ; preds = %3
  store i32 0, ptr %4, align 4
  br label %35

35:                                               ; preds = %34, %29, %24, %19, %14, %9
  %36 = load i32, ptr %4, align 4
  ret i32 %36
}

; Function Attrs: inlinehint mustprogress nounwind uwtable
define linkonce_odr hidden noundef i32 @_ZNK3dpx13GenericHeader15ImageDescriptorEi(ptr noundef nonnull align 4 dereferenceable(1664) %0, i32 noundef %1) #5 comdat align 2 {
  %3 = alloca i32, align 4
  %4 = alloca ptr, align 8
  %5 = alloca i32, align 4
  store ptr %0, ptr %4, align 8, !tbaa !19
  store i32 %1, ptr %5, align 4, !tbaa !8
  %6 = load ptr, ptr %4, align 8
  %7 = load i32, ptr %5, align 4, !tbaa !8
  %8 = icmp slt i32 %7, 0
  br i1 %8, label %12, label %9

9:                                                ; preds = %2
  %10 = load i32, ptr %5, align 4, !tbaa !8
  %11 = icmp sge i32 %10, 8
  br i1 %11, label %12, label %13

12:                                               ; preds = %9, %2
  store i32 255, ptr %3, align 4
  br label %21

13:                                               ; preds = %9
  %14 = getelementptr inbounds nuw %"struct.dpx::GenericHeader", ptr %6, i32 0, i32 19
  %15 = load i32, ptr %5, align 4, !tbaa !8
  %16 = sext i32 %15 to i64
  %17 = getelementptr inbounds [8 x %"struct.dpx::ImageElement"], ptr %14, i64 0, i64 %16
  %18 = getelementptr inbounds nuw %"struct.dpx::ImageElement", ptr %17, i32 0, i32 5
  %19 = load i8, ptr %18, align 4, !tbaa !21
  %20 = zext i8 %19 to i32
  store i32 %20, ptr %3, align 4
  br label %21

21:                                               ; preds = %13, %12
  %22 = load i32, ptr %3, align 4
  ret i32 %22
}

; Function Attrs: mustprogress uwtable
define hidden noundef i32 @_ZN3dpx18QueryRGBBufferSizeERKNS_6HeaderEiRKNS_5BlockE(ptr noundef nonnull align 4 dereferenceable(2049) %0, i32 noundef %1, ptr noundef nonnull align 4 dereferenceable(16) %2) #4 {
  %4 = alloca ptr, align 8
  %5 = alloca i32, align 4
  %6 = alloca ptr, align 8
  store ptr %0, ptr %4, align 8, !tbaa !3
  store i32 %1, ptr %5, align 4, !tbaa !8
  store ptr %2, ptr %6, align 8, !tbaa !10
  %7 = load ptr, ptr %4, align 8, !tbaa !3
  %8 = load i32, ptr %5, align 4, !tbaa !8
  %9 = call noundef i32 @_ZNK3dpx13GenericHeader15ImageDescriptorEi(ptr noundef nonnull align 4 dereferenceable(1664) %7, i32 noundef %8)
  %10 = load ptr, ptr %6, align 8, !tbaa !10
  %11 = getelementptr inbounds nuw %"struct.dpx::Block", ptr %10, i32 0, i32 2
  %12 = load i32, ptr %11, align 4, !tbaa !12
  %13 = load ptr, ptr %6, align 8, !tbaa !10
  %14 = getelementptr inbounds nuw %"struct.dpx::Block", ptr %13, i32 0, i32 0
  %15 = load i32, ptr %14, align 4, !tbaa !14
  %16 = sub nsw i32 %12, %15
  %17 = add nsw i32 %16, 1
  %18 = load ptr, ptr %6, align 8, !tbaa !10
  %19 = getelementptr inbounds nuw %"struct.dpx::Block", ptr %18, i32 0, i32 3
  %20 = load i32, ptr %19, align 4, !tbaa !15
  %21 = load ptr, ptr %6, align 8, !tbaa !10
  %22 = getelementptr inbounds nuw %"struct.dpx::Block", ptr %21, i32 0, i32 1
  %23 = load i32, ptr %22, align 4, !tbaa !16
  %24 = sub nsw i32 %20, %23
  %25 = add nsw i32 %24, 1
  %26 = mul nsw i32 %17, %25
  %27 = load ptr, ptr %4, align 8, !tbaa !3
  %28 = load i32, ptr %5, align 4, !tbaa !8
  %29 = call noundef i32 @_ZNK3dpx13GenericHeader18ComponentByteCountEi(ptr noundef nonnull align 4 dereferenceable(1664) %27, i32 noundef %28)
  %30 = call noundef i32 @_ZN3dpxL26QueryRGBBufferSizeInternalENS_10DescriptorEii(i32 noundef %9, i32 noundef %26, i32 noundef %29)
  ret i32 %30
}