; Function Attrs: mustprogress uwtable
define hidden noundef i32 @_ZN3dpx18QueryRGBBufferSizeERKNS_6HeaderEiRKNS_5BlockE(ptr noundef nonnull align 4 dereferenceable(2049) %0, i32 noundef %1, ptr noundef nonnull readonly align 4 captures(none) dereferenceable(16) %2) local_unnamed_addr #3 {
  %or.cond.i = icmp ugt i32 %1, 7
  br i1 %or.cond.i, label %_ZNK3dpx13GenericHeader15ImageDescriptorEi.exit, label %4

4:                                                ; preds = %3
  %5 = getelementptr inbounds nuw i8, ptr %0, i64 780
  %narrow.i = mul nuw nsw i32 %1, 72
  %6 = zext nneg i32 %narrow.i to i64
  %7 = getelementptr inbounds nuw i8, ptr %5, i64 %6
  %8 = getelementptr inbounds nuw i8, ptr %7, i64 20
  %9 = load i8, ptr %8, align 4, !tbaa !3
  br label %_ZNK3dpx13GenericHeader15ImageDescriptorEi.exit

_ZNK3dpx13GenericHeader15ImageDescriptorEi.exit:  ; preds = %3, %4
  %.0.i = phi i8 [ %9, %4 ], [ -1, %3 ]
  %10 = getelementptr inbounds nuw i8, ptr %2, i64 8
  %11 = load i32, ptr %10, align 4, !tbaa !10
  %12 = load i32, ptr %2, align 4, !tbaa !12
  %13 = add i32 %11, 1
  %14 = sub i32 %13, %12
  %15 = getelementptr inbounds nuw i8, ptr %2, i64 12
  %16 = load i32, ptr %15, align 4, !tbaa !13
  %17 = getelementptr inbounds nuw i8, ptr %2, i64 4
  %18 = load i32, ptr %17, align 4, !tbaa !14
  %19 = add i32 %16, 1
  %20 = sub i32 %19, %18
  %21 = mul nsw i32 %20, %14
  %22 = tail call noundef i32 @_ZNK3dpx13GenericHeader18ComponentByteCountEi(ptr noundef nonnull align 4 dereferenceable(1664) %0, i32 noundef %1)
  switch i8 %.0.i, label %_ZN3dpxL26QueryRGBBufferSizeInternalENS_10DescriptorEii.exit [
    i8 100, label %23
    i8 102, label %26
    i8 50, label %26
    i8 101, label %29
    i8 103, label %32
    i8 51, label %32
    i8 52, label %32
    i8 1, label %35
    i8 2, label %35
    i8 3, label %35
    i8 4, label %35
    i8 6, label %35
    i8 8, label %35
  ]

23:                                               ; preds = %_ZNK3dpx13GenericHeader15ImageDescriptorEi.exit
  %24 = mul i32 %21, %22
  %25 = mul i32 %24, 3
  br label %_ZN3dpxL26QueryRGBBufferSizeInternalENS_10DescriptorEii.exit

26:                                               ; preds = %_ZNK3dpx13GenericHeader15ImageDescriptorEi.exit, %_ZNK3dpx13GenericHeader15ImageDescriptorEi.exit
  %27 = mul i32 %21, %22
  %28 = mul i32 %27, -3
  br label %_ZN3dpxL26QueryRGBBufferSizeInternalENS_10DescriptorEii.exit

29:                                               ; preds = %_ZNK3dpx13GenericHeader15ImageDescriptorEi.exit
  %30 = mul i32 %21, %22
  %31 = shl i32 %30, 2
  br label %_ZN3dpxL26QueryRGBBufferSizeInternalENS_10DescriptorEii.exit

32:                                               ; preds = %_ZNK3dpx13GenericHeader15ImageDescriptorEi.exit, %_ZNK3dpx13GenericHeader15ImageDescriptorEi.exit, %_ZNK3dpx13GenericHeader15ImageDescriptorEi.exit
  %33 = mul i32 %21, %22
  %34 = mul i32 %33, -4
  br label %_ZN3dpxL26QueryRGBBufferSizeInternalENS_10DescriptorEii.exit

35:                                               ; preds = %_ZNK3dpx13GenericHeader15ImageDescriptorEi.exit, %_ZNK3dpx13GenericHeader15ImageDescriptorEi.exit, %_ZNK3dpx13GenericHeader15ImageDescriptorEi.exit, %_ZNK3dpx13GenericHeader15ImageDescriptorEi.exit, %_ZNK3dpx13GenericHeader15ImageDescriptorEi.exit, %_ZNK3dpx13GenericHeader15ImageDescriptorEi.exit
  %36 = mul nsw i32 %21, %22
  br label %_ZN3dpxL26QueryRGBBufferSizeInternalENS_10DescriptorEii.exit

_ZN3dpxL26QueryRGBBufferSizeInternalENS_10DescriptorEii.exit: ; preds = %_ZNK3dpx13GenericHeader15ImageDescriptorEi.exit, %23, %26, %29, %32, %35
  %.0.i7 = phi i32 [ %36, %35 ], [ %34, %32 ], [ %31, %29 ], [ %28, %26 ], [ %25, %23 ], [ 0, %_ZNK3dpx13GenericHeader15ImageDescriptorEi.exit ]
  ret i32 %.0.i7
}